target datalayout = "e-m:e-p270:32:32-p271:32:32-p272:64:64-i64:64-i128:128-f80:128-n8:16:32:64-S128"
target triple = "x86_64-pc-linux-gnu"

%struct.LVRelState = type { ptr, ptr, i32, ptr, ptr, i8, i8, i8, i8, i8, i8, %struct.VacuumCutoffs, ptr, i32, i32, i8, ptr, ptr, ptr, ptr, i32, i16, i32, i8, ptr, ptr, i32, i32, i32, i32, i32, i32, i32, i32, i32, i32, i32, double, double, ptr, i32, i64, i64, i64, i64, i64, i64, i32, i32, i8, i8, i32, i32, i32, i32, i32 }
%struct.VacuumCutoffs = type { i32, i32, i32, i32, i32, i32 }

; Function Attrs: nounwind uwtable
define internal void @find_next_unskippable_block(ptr noundef %0, ptr noundef %1) #0 {
  %3 = alloca ptr, align 8
  %4 = alloca ptr, align 8
  %5 = alloca i32, align 4
  %6 = alloca i32, align 4
  %7 = alloca i32, align 4
  %8 = alloca i8, align 1
  %9 = alloca i8, align 1
  %10 = alloca i8, align 1
  %11 = alloca i32, align 4
  store ptr %0, ptr %3, align 8
  store ptr %1, ptr %4, align 8
  call void @llvm.lifetime.start.p0(i64 4, ptr %5) #10
  %12 = load ptr, ptr %3, align 8
  %13 = getelementptr inbounds nuw %struct.LVRelState, ptr %12, i32 0, i32 26
  %14 = load i32, ptr %13, align 8
  store i32 %14, ptr %5, align 4
  call void @llvm.lifetime.start.p0(i64 4, ptr %6) #10
  %15 = load ptr, ptr %3, align 8
  %16 = getelementptr inbounds nuw %struct.LVRelState, ptr %15, i32 0, i32 48
  %17 = load i32, ptr %16, align 4
  %18 = add i32 %17, 1
  store i32 %18, ptr %6, align 4
  call void @llvm.lifetime.start.p0(i64 4, ptr %7) #10
  %19 = load ptr, ptr %3, align 8
  %20 = getelementptr inbounds nuw %struct.LVRelState, ptr %19, i32 0, i32 51
  %21 = load i32, ptr %20, align 4
  store i32 %21, ptr %7, align 4
  call void @llvm.lifetime.start.p0(i64 1, ptr %8) #10
  store i8 0, ptr %8, align 1
  call void @llvm.lifetime.start.p0(i64 1, ptr %9) #10
  %22 = load ptr, ptr %4, align 8
  store i8 0, ptr %22, align 1
  br label %23

23:                                               ; preds = %88, %2
  call void @llvm.lifetime.start.p0(i64 1, ptr %10) #10
  %24 = load ptr, ptr %3, align 8
  %25 = getelementptr inbounds nuw %struct.LVRelState, ptr %24, i32 0, i32 0
  %26 = load ptr, ptr %25, align 8
  %27 = load i32, ptr %6, align 4
  %28 = call zeroext i8 @visibilitymap_get_status(ptr noundef %26, i32 noundef %27, ptr noundef %7)
  store i8 %28, ptr %10, align 1
  %29 = load i8, ptr %10, align 1
  %30 = zext i8 %29 to i32
  %31 = and i32 %30, 1
  %32 = icmp ne i32 %31, 0
  %33 = zext i1 %32 to i8
  store i8 %33, ptr %9, align 1
  %34 = load i32, ptr %6, align 4
  %35 = load ptr, ptr %3, align 8
  %36 = getelementptr inbounds nuw %struct.LVRelState, ptr %35, i32 0, i32 52
  %37 = load i32, ptr %36, align 8
  %38 = icmp uge i32 %34, %37
  br i1 %38, label %39, label %49

39:                                               ; preds = %23
  %40 = load ptr, ptr %3, align 8
  %41 = getelementptr inbounds nuw %struct.LVRelState, ptr %40, i32 0, i32 54
  %42 = load i32, ptr %41, align 8
  %43 = load ptr, ptr %3, align 8
  %44 = getelementptr inbounds nuw %struct.LVRelState, ptr %43, i32 0, i32 55
  store i32 %42, ptr %44, align 4
  %45 = load ptr, ptr %3, align 8
  %46 = getelementptr inbounds nuw %struct.LVRelState, ptr %45, i32 0, i32 52
  %47 = load i32, ptr %46, align 8
  %48 = add i32 %47, 4096
  store i32 %48, ptr %46, align 8
  br label %49

49:                                               ; preds = %39, %23
  %50 = load i8, ptr %9, align 1, !range !4, !noundef !5
  %51 = trunc i8 %50 to i1
  br i1 %51, label %53, label %52

52:                                               ; preds = %49
  store i32 2, ptr %11, align 4
  br label %85

53:                                               ; preds = %49
  %54 = load i32, ptr %6, align 4
  %55 = load i32, ptr %5, align 4
  %56 = sub i32 %55, 1
  %57 = icmp eq i32 %54, %56
  br i1 %57, label %58, label %59

58:                                               ; preds = %53
  store i32 2, ptr %11, align 4
  br label %85

59:                                               ; preds = %53
  %60 = load ptr, ptr %3, align 8
  %61 = getelementptr inbounds nuw %struct.LVRelState, ptr %60, i32 0, i32 6
  %62 = load i8, ptr %61, align 1, !range !4, !noundef !5
  %63 = trunc i8 %62 to i1
  br i1 %63, label %65, label %64

64:                                               ; preds = %59
  store i32 2, ptr %11, align 4
  br label %85

65:                                               ; preds = %59
  %66 = load i8, ptr %10, align 1
  %67 = zext i8 %66 to i32
  %68 = and i32 %67, 2
  %69 = icmp ne i32 %68, 0
  br i1 %69, label %70, label %71

70:                                               ; preds = %65
  store i32 4, ptr %11, align 4
  br label %85

71:                                               ; preds = %65
  %72 = load ptr, ptr %3, align 8
  %73 = getelementptr inbounds nuw %struct.LVRelState, ptr %72, i32 0, i32 5
  %74 = load i8, ptr %73, align 8, !range !4, !noundef !5
  %75 = trunc i8 %74 to i1
  br i1 %75, label %76, label %77

76:                                               ; preds = %71
  store i32 2, ptr %11, align 4
  br label %85

77:                                               ; preds = %71
  %78 = load ptr, ptr %3, align 8
  %79 = getelementptr inbounds nuw %struct.LVRelState, ptr %78, i32 0, i32 55
  %80 = load i32, ptr %79, align 4
  %81 = icmp ugt i32 %80, 0
  br i1 %81, label %82, label %83

82:                                               ; preds = %77
  store i8 1, ptr %8, align 1
  store i32 2, ptr %11, align 4
  br label %85

83:                                               ; preds = %77
  %84 = load ptr, ptr %4, align 8
  store i8 1, ptr %84, align 1
  store i32 0, ptr %11, align 4
  br label %85

85:                                               ; preds = %83, %82, %76, %70, %64, %58, %52
  call void @llvm.lifetime.end.p0(i64 1, ptr %10) #10
  %86 = load i32, ptr %11, align 4
  switch i32 %86, label %108 [
    i32 0, label %87
    i32 2, label %91
    i32 4, label %88
  ]

87:                                               ; preds = %85
  br label %88

88:                                               ; preds = %87, %85
  %89 = load i32, ptr %6, align 4
  %90 = add i32 %89, 1
  store i32 %90, ptr %6, align 4
  br label %23

91:                                               ; preds = %85
  %92 = load i32, ptr %6, align 4
  %93 = load ptr, ptr %3, align 8
  %94 = getelementptr inbounds nuw %struct.LVRelState, ptr %93, i32 0, i32 48
  store i32 %92, ptr %94, align 4
  %95 = load i8, ptr %9, align 1, !range !4, !noundef !5
  %96 = trunc i8 %95 to i1
  %97 = load ptr, ptr %3, align 8
  %98 = getelementptr inbounds nuw %struct.LVRelState, ptr %97, i32 0, i32 49
  %99 = zext i1 %96 to i8
  store i8 %99, ptr %98, align 8
  %100 = load i8, ptr %8, align 1, !range !4, !noundef !5
  %101 = trunc i8 %100 to i1
  %102 = load ptr, ptr %3, align 8
  %103 = getelementptr inbounds nuw %struct.LVRelState, ptr %102, i32 0, i32 50
  %104 = zext i1 %101 to i8
  store i8 %104, ptr %103, align 1
  %105 = load i32, ptr %7, align 4
  %106 = load ptr, ptr %3, align 8
  %107 = getelementptr inbounds nuw %struct.LVRelState, ptr %106, i32 0, i32 51
  store i32 %105, ptr %107, align 4
  call void @llvm.lifetime.end.p0(i64 1, ptr %9) #10
  call void @llvm.lifetime.end.p0(i64 1, ptr %8) #10
  call void @llvm.lifetime.end.p0(i64 4, ptr %7) #10
  call void @llvm.lifetime.end.p0(i64 4, ptr %6) #10
  call void @llvm.lifetime.end.p0(i64 4, ptr %5) #10
  ret void

108:                                              ; preds = %85
  unreachable
}

; Function Attrs: inlinehint nounwind uwtable
define internal zeroext i1 @BufferIsValid(i32 noundef %0) #6 {
  %2 = alloca i32, align 4
  store i32 %0, ptr %2, align 4
  %3 = load i32, ptr %2, align 4
  %4 = icmp ne i32 %3, 0
  ret i1 %4
}

; Function Attrs: nounwind uwtable
define internal i32 @heap_vac_scan_next_block(ptr noundef %0, ptr noundef %1, ptr noundef %2) #0 {
  %4 = alloca i32, align 4
  %5 = alloca ptr, align 8
  %6 = alloca ptr, align 8
  %7 = alloca ptr, align 8
  %8 = alloca i32, align 4
  %9 = alloca ptr, align 8
  %10 = alloca i8, align 1
  %11 = alloca i32, align 4
  %12 = alloca i8, align 1
  store ptr %0, ptr %5, align 8
  store ptr %1, ptr %6, align 8
  store ptr %2, ptr %7, align 8
  call void @llvm.lifetime.start.p0(i64 4, ptr %8) #10
  call void @llvm.lifetime.start.p0(i64 8, ptr %9) #10
  %13 = load ptr, ptr %6, align 8
  store ptr %13, ptr %9, align 8
  call void @llvm.lifetime.start.p0(i64 1, ptr %10) #10
  store i8 0, ptr %10, align 1
  %14 = load ptr, ptr %9, align 8
  %15 = getelementptr inbounds nuw %struct.LVRelState, ptr %14, i32 0, i32 47
  %16 = load i32, ptr %15, align 8
  %17 = add i32 %16, 1
  store i32 %17, ptr %8, align 4
  %18 = load i32, ptr %8, align 4
  %19 = load ptr, ptr %9, align 8
  %20 = getelementptr inbounds nuw %struct.LVRelState, ptr %19, i32 0, i32 26
  %21 = load i32, ptr %20, align 8
  %22 = icmp uge i32 %18, %21
  br i1 %22, label %23, label %35

23:                                               ; preds = %3
  %24 = load ptr, ptr %9, align 8
  %25 = getelementptr inbounds nuw %struct.LVRelState, ptr %24, i32 0, i32 51
  %26 = load i32, ptr %25, align 4
  %27 = call zeroext i1 @BufferIsValid(i32 noundef %26)
  br i1 %27, label %28, label %34

28:                                               ; preds = %23
  %29 = load ptr, ptr %9, align 8
  %30 = getelementptr inbounds nuw %struct.LVRelState, ptr %29, i32 0, i32 51
  %31 = load i32, ptr %30, align 4
  call void @ReleaseBuffer(i32 noundef %31)
  %32 = load ptr, ptr %9, align 8
  %33 = getelementptr inbounds nuw %struct.LVRelState, ptr %32, i32 0, i32 51
  store i32 0, ptr %33, align 4
  br label %34

34:                                               ; preds = %28, %23
  store i32 -1, ptr %4, align 4
  store i32 1, ptr %11, align 4
  br label %113

35:                                               ; preds = %3
  %36 = load i32, ptr %8, align 4
  %37 = load ptr, ptr %9, align 8
  %38 = getelementptr inbounds nuw %struct.LVRelState, ptr %37, i32 0, i32 48
  %39 = load i32, ptr %38, align 4
  %40 = icmp ugt i32 %36, %39
  br i1 %40, label %46, label %41

41:                                               ; preds = %35
  %42 = load ptr, ptr %9, align 8
  %43 = getelementptr inbounds nuw %struct.LVRelState, ptr %42, i32 0, i32 48
  %44 = load i32, ptr %43, align 4
  %45 = icmp eq i32 %44, -1
  br i1 %45, label %46, label %65

46:                                               ; preds = %41, %35
  call void @llvm.lifetime.start.p0(i64 1, ptr %12) #10
  %47 = load ptr, ptr %9, align 8
  call void @find_next_unskippable_block(ptr noundef %47, ptr noundef %12)
  %48 = load ptr, ptr %9, align 8
  %49 = getelementptr inbounds nuw %struct.LVRelState, ptr %48, i32 0, i32 48
  %50 = load i32, ptr %49, align 4
  %51 = load i32, ptr %8, align 4
  %52 = sub i32 %50, %51
  %53 = icmp uge i32 %52, 32
  br i1 %53, label %54, label %64

54:                                               ; preds = %46
  %55 = load ptr, ptr %9, align 8
  %56 = getelementptr inbounds nuw %struct.LVRelState, ptr %55, i32 0, i32 48
  %57 = load i32, ptr %56, align 4
  store i32 %57, ptr %8, align 4
  %58 = load i8, ptr %12, align 1, !range !4, !noundef !5
  %59 = trunc i8 %58 to i1
  br i1 %59, label %60, label %63

60:                                               ; preds = %54
  %61 = load ptr, ptr %9, align 8
  %62 = getelementptr inbounds nuw %struct.LVRelState, ptr %61, i32 0, i32 15
  store i8 1, ptr %62, align 8
  br label %63

63:                                               ; preds = %60, %54
  br label %64

64:                                               ; preds = %63, %46
  call void @llvm.lifetime.end.p0(i64 1, ptr %12) #10
  br label %65

65:                                               ; preds = %64, %41
  %66 = load i32, ptr %8, align 4
  %67 = load ptr, ptr %9, align 8
  %68 = getelementptr inbounds nuw %struct.LVRelState, ptr %67, i32 0, i32 48
  %69 = load i32, ptr %68, align 4
  %70 = icmp ult i32 %66, %69
  br i1 %70, label %71, label %84

71:                                               ; preds = %65
  %72 = load i32, ptr %8, align 4
  %73 = load ptr, ptr %9, align 8
  %74 = getelementptr inbounds nuw %struct.LVRelState, ptr %73, i32 0, i32 47
  store i32 %72, ptr %74, align 8
  %75 = load i8, ptr %10, align 1
  %76 = zext i8 %75 to i32
  %77 = or i32 %76, 2
  %78 = trunc i32 %77 to i8
  store i8 %78, ptr %10, align 1
  %79 = load i8, ptr %10, align 1
  %80 = load ptr, ptr %7, align 8
  store i8 %79, ptr %80, align 1
  %81 = load ptr, ptr %9, align 8
  %82 = getelementptr inbounds nuw %struct.LVRelState, ptr %81, i32 0, i32 47
  %83 = load i32, ptr %82, align 8
  store i32 %83, ptr %4, align 4
  store i32 1, ptr %11, align 4
  br label %113

84:                                               ; preds = %65
  %85 = load i32, ptr %8, align 4
  %86 = load ptr, ptr %9, align 8
  %87 = getelementptr inbounds nuw %struct.LVRelState, ptr %86, i32 0, i32 47
  store i32 %85, ptr %87, align 8
  %88 = load ptr, ptr %9, align 8
  %89 = getelementptr inbounds nuw %struct.LVRelState, ptr %88, i32 0, i32 49
  %90 = load i8, ptr %89, align 8, !range !4, !noundef !5
  %91 = trunc i8 %90 to i1
  br i1 %91, label %92, label %97

92:                                               ; preds = %84
  %93 = load i8, ptr %10, align 1
  %94 = zext i8 %93 to i32
  %95 = or i32 %94, 2
  %96 = trunc i32 %95 to i8
  store i8 %96, ptr %10, align 1
  br label %97

97:                                               ; preds = %92, %84
  %98 = load ptr, ptr %9, align 8
  %99 = getelementptr inbounds nuw %struct.LVRelState, ptr %98, i32 0, i32 50
  %100 = load i8, ptr %99, align 1, !range !4, !noundef !5
  %101 = trunc i8 %100 to i1
  br i1 %101, label %102, label %107

102:                                              ; preds = %97
  %103 = load i8, ptr %10, align 1
  %104 = zext i8 %103 to i32
  %105 = or i32 %104, 1
  %106 = trunc i32 %105 to i8
  store i8 %106, ptr %10, align 1
  br label %107

107:                                              ; preds = %102, %97
  %108 = load i8, ptr %10, align 1
  %109 = load ptr, ptr %7, align 8
  store i8 %108, ptr %109, align 1
  %110 = load ptr, ptr %9, align 8
  %111 = getelementptr inbounds nuw %struct.LVRelState, ptr %110, i32 0, i32 47
  %112 = load i32, ptr %111, align 8
  store i32 %112, ptr %4, align 4
  store i32 1, ptr %11, align 4
  br label %113

113:                                              ; preds = %107, %71, %34
  call void @llvm.lifetime.end.p0(i64 1, ptr %10) #10
  call void @llvm.lifetime.end.p0(i64 8, ptr %9) #10
  call void @llvm.lifetime.end.p0(i64 4, ptr %8) #10
  %114 = load i32, ptr %4, align 4
  ret i32 %114
}