; Function Attrs: nounwind uwtable
define internal i32 @heap_vac_scan_next_block(ptr readnone captures(none) %0, ptr noundef captures(none) %1, ptr noundef writeonly captures(none) %2) #0 {
  %4 = alloca i32, align 4
  %5 = getelementptr inbounds nuw i8, ptr %1, i64 288
  %6 = load i32, ptr %5, align 8
  %7 = add i32 %6, 1
  %8 = getelementptr inbounds nuw i8, ptr %1, i64 160
  %9 = load i32, ptr %8, align 8
  %.not = icmp ult i32 %7, %9
  br i1 %.not, label %14, label %10

10:                                               ; preds = %3
  %11 = getelementptr inbounds nuw i8, ptr %1, i64 300
  %12 = load i32, ptr %11, align 4
  %.not38 = icmp eq i32 %12, 0
  br i1 %.not38, label %68, label %13

13:                                               ; preds = %10
  tail call void @ReleaseBuffer(i32 noundef %12) #10
  store i32 0, ptr %11, align 4
  br label %68

14:                                               ; preds = %3
  %15 = getelementptr inbounds nuw i8, ptr %1, i64 292
  %16 = load i32, ptr %15, align 4
  %17 = icmp ugt i32 %7, %16
  %18 = icmp eq i32 %16, -1
  %or.cond = or i1 %17, %18
  br i1 %or.cond, label %19, label %56

19:                                               ; preds = %14
  call void @llvm.lifetime.start.p0(i64 4, ptr nonnull %4) #10
  %20 = getelementptr inbounds nuw i8, ptr %1, i64 300
  %21 = load i32, ptr %20, align 4
  store i32 %21, ptr %4, align 4
  %22 = getelementptr inbounds nuw i8, ptr %1, i64 316
  %23 = getelementptr inbounds nuw i8, ptr %1, i64 304
  %24 = getelementptr inbounds nuw i8, ptr %1, i64 312
  %25 = add i32 %9, -2
  %26 = getelementptr inbounds nuw i8, ptr %1, i64 41
  %27 = getelementptr inbounds nuw i8, ptr %1, i64 40
  br label %.outer

.outer:                                           ; preds = %47, %19
  %.0.ph = phi i1 [ true, %47 ], [ false, %19 ]
  %.028.in.i.ph = phi i32 [ %.028.i, %47 ], [ %16, %19 ]
  br label %28

28:                                               ; preds = %.outer, %42
  %.028.in.i = phi i32 [ %.028.i, %42 ], [ %.028.in.i.ph, %.outer ]
  %.028.i = add i32 %.028.in.i, 1
  %29 = load ptr, ptr %1, align 8
  %30 = call zeroext i8 @visibilitymap_get_status(ptr noundef %29, i32 noundef %.028.i, ptr noundef nonnull %4) #10
  %31 = zext i8 %30 to i32
  %32 = and i32 %31, 1
  %.not.i = icmp eq i32 %32, 0
  %33 = load i32, ptr %23, align 8
  %.not30.i = icmp ult i32 %.028.i, %33
  br i1 %.not30.i, label %37, label %34

34:                                               ; preds = %28
  %35 = load i32, ptr %24, align 8
  store i32 %35, ptr %22, align 4
  %36 = add i32 %33, 4096
  store i32 %36, ptr %23, align 8
  br label %37

37:                                               ; preds = %34, %28
  %38 = icmp eq i32 %.028.in.i, %25
  %or.cond.i = or i1 %38, %.not.i
  br i1 %or.cond.i, label %find_next_unskippable_block.exit, label %39

39:                                               ; preds = %37
  %40 = load i8, ptr %26, align 1, !range !4, !noundef !5
  %41 = trunc nuw i8 %40 to i1
  br i1 %41, label %42, label %find_next_unskippable_block.exit

42:                                               ; preds = %39
  %43 = and i32 %31, 2
  %.not31.i = icmp eq i32 %43, 0
  br i1 %.not31.i, label %44, label %28

44:                                               ; preds = %42
  %45 = load i8, ptr %27, align 8, !range !4, !noundef !5
  %46 = trunc nuw i8 %45 to i1
  br i1 %46, label %find_next_unskippable_block.exit, label %47

47:                                               ; preds = %44
  %48 = load i32, ptr %22, align 4
  %.not32.i = icmp eq i32 %48, 0
  br i1 %.not32.i, label %.outer, label %find_next_unskippable_block.exit

find_next_unskippable_block.exit:                 ; preds = %44, %47, %37, %39
  %.1.ph.i = phi i8 [ 0, %39 ], [ 0, %37 ], [ 0, %44 ], [ 1, %47 ]
  %49 = trunc nuw nsw i32 %32 to i8
  store i32 %.028.i, ptr %15, align 4
  %50 = getelementptr inbounds nuw i8, ptr %1, i64 296
  store i8 %49, ptr %50, align 8
  %51 = getelementptr inbounds nuw i8, ptr %1, i64 297
  store i8 %.1.ph.i, ptr %51, align 1
  %52 = load i32, ptr %4, align 4
  store i32 %52, ptr %20, align 4
  call void @llvm.lifetime.end.p0(i64 4, ptr nonnull %4) #10
  %53 = sub i32 %.028.in.i, %6
  %54 = icmp ugt i32 %53, 31
  %brmerge.not = and i1 %54, %.0.ph
  %.mux = select i1 %54, i32 %.028.i, i32 %7
  br i1 %brmerge.not, label %.thread, label %56

.thread:                                          ; preds = %find_next_unskippable_block.exit
  %55 = getelementptr inbounds nuw i8, ptr %1, i64 88
  store i8 1, ptr %55, align 8
  br label %61

56:                                               ; preds = %find_next_unskippable_block.exit, %14
  %57 = phi i32 [ %16, %14 ], [ %.028.i, %find_next_unskippable_block.exit ]
  %.033 = phi i32 [ %7, %14 ], [ %.mux, %find_next_unskippable_block.exit ]
  %58 = icmp ult i32 %.033, %57
  br i1 %58, label %59, label %61

59:                                               ; preds = %56
  store i32 %.033, ptr %5, align 8
  store i8 2, ptr %2, align 1
  %60 = load i32, ptr %5, align 8
  br label %68

61:                                               ; preds = %.thread, %56
  %.03342 = phi i32 [ %.028.i, %.thread ], [ %.033, %56 ]
  store i32 %.03342, ptr %5, align 8
  %62 = getelementptr inbounds nuw i8, ptr %1, i64 296
  %63 = load i8, ptr %62, align 8, !range !4, !noundef !5
  %64 = trunc nuw i8 %63 to i1
  %spec.select = select i1 %64, i8 2, i8 0
  %65 = getelementptr inbounds nuw i8, ptr %1, i64 297
  %66 = load i8, ptr %65, align 1, !range !4, !noundef !5
  %.1 = or disjoint i8 %spec.select, %66
  store i8 %.1, ptr %2, align 1
  %67 = load i32, ptr %5, align 8
  br label %68

68:                                               ; preds = %10, %13, %61, %59
  %.032 = phi i32 [ %60, %59 ], [ %67, %61 ], [ -1, %13 ], [ -1, %10 ]
  ret i32 %.032
}